target datalayout = "e-m:e-p270:32:32-p271:32:32-p272:64:64-i64:64-i128:128-f80:128-n8:16:32:64-S128"
target triple = "x86_64-unknown-linux-gnu"

%"class.proxygen::HeaderTable" = type { ptr, i32, i32, %"class.std::vector", i32, i32, i32, i8, %"class.folly::F14FastMap" }
%"class.std::vector" = type { %"struct.std::_Vector_base" }
%"struct.std::_Vector_base" = type { %"struct.std::_Vector_base<proxygen::HPACKHeader, std::allocator<proxygen::HPACKHeader>>::_Vector_impl" }
%"struct.std::_Vector_base<proxygen::HPACKHeader, std::allocator<proxygen::HPACKHeader>>::_Vector_impl" = type { %"struct.std::_Vector_base<proxygen::HPACKHeader, std::allocator<proxygen::HPACKHeader>>::_Vector_impl_data" }
%"struct.std::_Vector_base<proxygen::HPACKHeader, std::allocator<proxygen::HPACKHeader>>::_Vector_impl_data" = type { ptr, ptr, ptr }
%"class.folly::F14FastMap" = type { %"class.folly::f14::detail::F14VectorMapImpl" }
%"class.folly::f14::detail::F14VectorMapImpl" = type { %"class.folly::f14::detail::F14BasicMap" }
%"class.folly::f14::detail::F14BasicMap" = type { %"class.folly::f14::detail::F14Table" }
%"class.folly::f14::detail::F14Table" = type { %"class.folly::f14::detail::VectorContainerPolicy", ptr, %"struct.folly::f14::detail::SizeAndChunkShiftAndPackedBegin" }
%"class.folly::f14::detail::VectorContainerPolicy" = type { ptr }
%"struct.folly::f14::detail::SizeAndChunkShiftAndPackedBegin" = type { %"struct.folly::f14::detail::PackedSizeAndChunkShift" }
%"struct.folly::f14::detail::PackedSizeAndChunkShift" = type { i64 }

; Function Attrs: mustprogress nounwind uwtable
define linkonce_odr noundef i64 @_ZNKSt6vectorIN8proxygen11HPACKHeaderESaIS1_EE4sizeEv(ptr noundef nonnull align 8 dereferenceable(24) %this) #5 comdat align 2 {
entry:
  %this.addr = alloca ptr, align 8
  store ptr %this, ptr %this.addr, align 8
  %this1 = load ptr, ptr %this.addr, align 8
  %_M_impl = getelementptr inbounds %"struct.std::_Vector_base", ptr %this1, i32 0, i32 0
  %_M_finish = getelementptr inbounds %"struct.std::_Vector_base<proxygen::HPACKHeader, std::allocator<proxygen::HPACKHeader>>::_Vector_impl_data", ptr %_M_impl, i32 0, i32 1
  %0 = load ptr, ptr %_M_finish, align 8
  %_M_impl2 = getelementptr inbounds %"struct.std::_Vector_base", ptr %this1, i32 0, i32 0
  %_M_start = getelementptr inbounds %"struct.std::_Vector_base<proxygen::HPACKHeader, std::allocator<proxygen::HPACKHeader>>::_Vector_impl_data", ptr %_M_impl2, i32 0, i32 0
  %1 = load ptr, ptr %_M_start, align 8
  %sub.ptr.lhs.cast = ptrtoint ptr %0 to i64
  %sub.ptr.rhs.cast = ptrtoint ptr %1 to i64
  %sub.ptr.sub = sub i64 %sub.ptr.lhs.cast, %sub.ptr.rhs.cast
  %sub.ptr.div = sdiv exact i64 %sub.ptr.sub, 32
  ret i64 %sub.ptr.div
}

; Function Attrs: mustprogress nounwind uwtable
define noundef i32 @_ZNK8proxygen11HeaderTable17getMaxTableLengthEj(ptr noundef nonnull align 8 dereferenceable(80) %this, i32 noundef %capacityVal) #5 align 2 {
entry:
  %this.addr = alloca ptr, align 8
  %capacityVal.addr = alloca i32, align 4
  store ptr %this, ptr %this.addr, align 8
  store i32 %capacityVal, ptr %capacityVal.addr, align 4
  %0 = load i32, ptr %capacityVal.addr, align 4
  %shr = lshr i32 %0, 5
  ret i32 %shr
}

; Function Attrs: mustprogress nounwind uwtable
define linkonce_odr noundef i64 @_ZNK8proxygen11HeaderTable6lengthEv(ptr noundef nonnull align 8 dereferenceable(80) %this) #5 comdat align 2 {
entry:
  %this.addr = alloca ptr, align 8
  store ptr %this, ptr %this.addr, align 8
  %this1 = load ptr, ptr %this.addr, align 8
  %table_ = getelementptr inbounds %"class.proxygen::HeaderTable", ptr %this1, i32 0, i32 3
  %call = call noundef i64 @_ZNKSt6vectorIN8proxygen11HPACKHeaderESaIS1_EE4sizeEv(ptr noundef nonnull align 8 dereferenceable(24) %table_) #3
  ret i64 %call
}

; Function Attrs: mustprogress uwtable
define noundef i32 @_ZN8proxygen11HeaderTable18initialTableLengthEj(ptr noundef nonnull align 8 dereferenceable(80) %this, i32 noundef %capacity) #4 align 2 {
entry:
  %this.addr = alloca ptr, align 8
  %capacity.addr = alloca i32, align 4
  %maxTableLength = alloca i32, align 4
  store ptr %this, ptr %this.addr, align 8
  store i32 %capacity, ptr %capacity.addr, align 4
  %this1 = load ptr, ptr %this.addr, align 8
  %0 = load i32, ptr %capacity.addr, align 4
  %call = call noundef i32 @_ZNK8proxygen11HeaderTable17getMaxTableLengthEj(ptr noundef nonnull align 8 dereferenceable(80) %this1, i32 noundef %0)
  store i32 %call, ptr %maxTableLength, align 4
  %1 = load i32, ptr %maxTableLength, align 4
  %cmp = icmp eq i32 %1, 1
  br i1 %cmp, label %cond.true, label %cond.false

cond.true:                                        ; preds = %entry
  br label %cond.end

cond.false:                                       ; preds = %entry
  %2 = load i32, ptr %maxTableLength, align 4
  %div = udiv i32 %2, 2
  br label %cond.end

cond.end:                                         ; preds = %cond.false, %cond.true
  %cond = phi i32 [ 1, %cond.true ], [ %div, %cond.false ]
  ret i32 %cond
}

; Function Attrs: mustprogress uwtable
define noundef zeroext i1 @_ZN8proxygen11HeaderTable11setCapacityEj(ptr noundef nonnull align 8 dereferenceable(80) %this, i32 noundef %newCapacity) unnamed_addr #4 align 2 {
entry:
  %retval = alloca i1, align 1
  %this.addr = alloca ptr, align 8
  %newCapacity.addr = alloca i32, align 4
  %newLength = alloca i32, align 4
  store ptr %this, ptr %this.addr, align 8
  store i32 %newCapacity, ptr %newCapacity.addr, align 4
  %this1 = load ptr, ptr %this.addr, align 8
  %0 = load i32, ptr %newCapacity.addr, align 4
  %capacity_ = getelementptr inbounds %"class.proxygen::HeaderTable", ptr %this1, i32 0, i32 1
  %1 = load i32, ptr %capacity_, align 8
  %cmp = icmp eq i32 %0, %1
  br i1 %cmp, label %if.then, label %if.else

if.then:                                          ; preds = %entry
  store i1 true, ptr %retval, align 1
  br label %return

if.else:                                          ; preds = %entry
  %2 = load i32, ptr %newCapacity.addr, align 4
  %capacity_2 = getelementptr inbounds %"class.proxygen::HeaderTable", ptr %this1, i32 0, i32 1
  %3 = load i32, ptr %capacity_2, align 8
  %cmp3 = icmp ult i32 %2, %3
  br i1 %cmp3, label %if.then4, label %if.else7

if.then4:                                         ; preds = %if.else
  %4 = load i32, ptr %newCapacity.addr, align 4
  %vtable = load ptr, ptr %this1, align 8
  %vfn = getelementptr inbounds ptr, ptr %vtable, i64 8
  %5 = load ptr, ptr %vfn, align 8
  %call = call noundef i32 %5(ptr noundef nonnull align 8 dereferenceable(80) %this1, i32 noundef 0, i32 noundef %4)
  %bytes_ = getelementptr inbounds %"class.proxygen::HeaderTable", ptr %this1, i32 0, i32 2
  %6 = load i32, ptr %bytes_, align 4
  %7 = load i32, ptr %newCapacity.addr, align 4
  %cmp5 = icmp ugt i32 %6, %7
  br i1 %cmp5, label %if.then6, label %if.end

if.then6:                                         ; preds = %if.then4
  store i1 false, ptr %retval, align 1
  br label %return

if.end:                                           ; preds = %if.then4
  br label %if.end15

if.else7:                                         ; preds = %if.else
  %8 = load i32, ptr %newCapacity.addr, align 4
  %call8 = call noundef i32 @_ZN8proxygen11HeaderTable18initialTableLengthEj(ptr noundef nonnull align 8 dereferenceable(80) %this1, i32 noundef %8)
  store i32 %call8, ptr %newLength, align 4
  %9 = load i32, ptr %newLength, align 4
  %conv = zext i32 %9 to i64
  %call9 = call noundef i64 @_ZNK8proxygen11HeaderTable6lengthEv(ptr noundef nonnull align 8 dereferenceable(80) %this1)
  %cmp10 = icmp ugt i64 %conv, %call9
  br i1 %cmp10, label %if.then11, label %if.end14

if.then11:                                        ; preds = %if.else7
  %10 = load i32, ptr %newLength, align 4
  %vtable12 = load ptr, ptr %this1, align 8
  %vfn13 = getelementptr inbounds ptr, ptr %vtable12, i64 4
  %11 = load ptr, ptr %vfn13, align 8
  call void %11(ptr noundef nonnull align 8 dereferenceable(80) %this1, i32 noundef %10)
  br label %if.end14

if.end14:                                         ; preds = %if.then11, %if.else7
  br label %if.end15

if.end15:                                         ; preds = %if.end14, %if.end
  br label %if.end16

if.end16:                                         ; preds = %if.end15
  %12 = load i32, ptr %newCapacity.addr, align 4
  %capacity_17 = getelementptr inbounds %"class.proxygen::HeaderTable", ptr %this1, i32 0, i32 1
  store i32 %12, ptr %capacity_17, align 8
  store i1 true, ptr %retval, align 1
  br label %return

return:                                           ; preds = %if.end16, %if.then6, %if.then
  %13 = load i1, ptr %retval, align 1
  ret i1 %13
}