; Function Attrs: mustprogress uwtable
define noundef zeroext i1 @_ZN8proxygen11HeaderTable11setCapacityEj(ptr noundef nonnull align 8 dereferenceable(80) %this, i32 noundef %newCapacity) unnamed_addr #4 align 2 {
entry:
  %capacity_ = getelementptr inbounds i8, ptr %this, i64 8
  %0 = load i32, ptr %capacity_, align 8
  %cmp = icmp eq i32 %0, %newCapacity
  br i1 %cmp, label %return, label %if.else

if.else:                                          ; preds = %entry
  %cmp3 = icmp ugt i32 %0, %newCapacity
  br i1 %cmp3, label %if.then4, label %if.else7

if.then4:                                         ; preds = %if.else
  %vtable = load ptr, ptr %this, align 8
  %vfn = getelementptr inbounds i8, ptr %vtable, i64 64
  %1 = load ptr, ptr %vfn, align 8
  %call = tail call noundef i32 %1(ptr noundef nonnull align 8 dereferenceable(80) %this, i32 noundef 0, i32 noundef %newCapacity)
  %bytes_ = getelementptr inbounds i8, ptr %this, i64 12
  %2 = load i32, ptr %bytes_, align 4
  %cmp5 = icmp ugt i32 %2, %newCapacity
  br i1 %cmp5, label %return, label %if.end16

if.else7:                                         ; preds = %if.else
  %shr.i.mask.i = and i32 %newCapacity, -32
  %cmp.i = icmp eq i32 %shr.i.mask.i, 32
  %div2.i = lshr i32 %newCapacity, 6
  %cond.i = select i1 %cmp.i, i32 1, i32 %div2.i
  %conv = zext nneg i32 %cond.i to i64
  %table_.i = getelementptr inbounds i8, ptr %this, i64 16
  %_M_finish.i.i = getelementptr inbounds i8, ptr %this, i64 24
  %3 = load ptr, ptr %_M_finish.i.i, align 8
  %4 = load ptr, ptr %table_.i, align 8
  %sub.ptr.lhs.cast.i.i = ptrtoint ptr %3 to i64
  %sub.ptr.rhs.cast.i.i = ptrtoint ptr %4 to i64
  %sub.ptr.sub.i.i = sub i64 %sub.ptr.lhs.cast.i.i, %sub.ptr.rhs.cast.i.i
  %sub.ptr.div.i.i = ashr exact i64 %sub.ptr.sub.i.i, 5
  %cmp10 = icmp ult i64 %sub.ptr.div.i.i, %conv
  br i1 %cmp10, label %if.then11, label %if.end16

if.then11:                                        ; preds = %if.else7
  %vtable12 = load ptr, ptr %this, align 8
  %vfn13 = getelementptr inbounds i8, ptr %vtable12, i64 32
  %5 = load ptr, ptr %vfn13, align 8
  tail call void %5(ptr noundef nonnull align 8 dereferenceable(80) %this, i32 noundef %cond.i)
  br label %if.end16

if.end16:                                         ; preds = %if.then4, %if.then11, %if.else7
  store i32 %newCapacity, ptr %capacity_, align 8
  br label %return

return:                                           ; preds = %if.then4, %entry, %if.end16
  %retval.0 = phi i1 [ true, %if.end16 ], [ true, %entry ], [ false, %if.then4 ]
  ret i1 %retval.0
}